target datalayout = "e-m:e-p270:32:32-p271:32:32-p272:64:64-i64:64-i128:128-f80:128-n8:16:32:64-S128"
target triple = "x86_64-pc-linux-gnu"

%struct.MemBuffer = type { i64, i64, i64, i64, ptr }
%struct.WebPDemuxer = type { %struct.MemBuffer, i32, i32, i32, i32, i32, i32, i32, i32, ptr, ptr, ptr, ptr }
%struct.Frame = type { i32, i32, i32, i32, i32, i32, i32, i32, i32, i32, [2 x %struct.ChunkData], ptr }
%struct.ChunkData = type { i64, i64 }

; Function Attrs: nounwind uwtable
define internal i32 @CheckFrameBounds(ptr noundef %0, i32 noundef %1, i32 noundef %2, i32 noundef %3) #0 {
  %5 = alloca i32, align 4
  %6 = alloca ptr, align 8
  %7 = alloca i32, align 4
  %8 = alloca i32, align 4
  %9 = alloca i32, align 4
  store ptr %0, ptr %6, align 8, !tbaa !40
  store i32 %1, ptr %7, align 4, !tbaa !8
  store i32 %2, ptr %8, align 4, !tbaa !8
  store i32 %3, ptr %9, align 4, !tbaa !8
  %10 = load i32, ptr %7, align 4, !tbaa !8
  %11 = icmp ne i32 %10, 0
  br i1 %11, label %12, label %37

12:                                               ; preds = %4
  %13 = load ptr, ptr %6, align 8, !tbaa !40
  %14 = getelementptr inbounds nuw %struct.Frame, ptr %13, i32 0, i32 0
  %15 = load i32, ptr %14, align 8, !tbaa !96
  %16 = icmp ne i32 %15, 0
  br i1 %16, label %22, label %17

17:                                               ; preds = %12
  %18 = load ptr, ptr %6, align 8, !tbaa !40
  %19 = getelementptr inbounds nuw %struct.Frame, ptr %18, i32 0, i32 1
  %20 = load i32, ptr %19, align 4, !tbaa !97
  %21 = icmp ne i32 %20, 0
  br i1 %21, label %22, label %23

22:                                               ; preds = %17, %12
  store i32 0, ptr %5, align 4
  br label %72

23:                                               ; preds = %17
  %24 = load ptr, ptr %6, align 8, !tbaa !40
  %25 = getelementptr inbounds nuw %struct.Frame, ptr %24, i32 0, i32 2
  %26 = load i32, ptr %25, align 8, !tbaa !41
  %27 = load i32, ptr %8, align 4, !tbaa !8
  %28 = icmp ne i32 %26, %27
  br i1 %28, label %35, label %29

29:                                               ; preds = %23
  %30 = load ptr, ptr %6, align 8, !tbaa !40
  %31 = getelementptr inbounds nuw %struct.Frame, ptr %30, i32 0, i32 3
  %32 = load i32, ptr %31, align 4, !tbaa !44
  %33 = load i32, ptr %9, align 4, !tbaa !8
  %34 = icmp ne i32 %32, %33
  br i1 %34, label %35, label %36

35:                                               ; preds = %29, %23
  store i32 0, ptr %5, align 4
  br label %72

36:                                               ; preds = %29
  br label %71

37:                                               ; preds = %4
  %38 = load ptr, ptr %6, align 8, !tbaa !40
  %39 = getelementptr inbounds nuw %struct.Frame, ptr %38, i32 0, i32 0
  %40 = load i32, ptr %39, align 8, !tbaa !96
  %41 = icmp slt i32 %40, 0
  br i1 %41, label %47, label %42

42:                                               ; preds = %37
  %43 = load ptr, ptr %6, align 8, !tbaa !40
  %44 = getelementptr inbounds nuw %struct.Frame, ptr %43, i32 0, i32 1
  %45 = load i32, ptr %44, align 4, !tbaa !97
  %46 = icmp slt i32 %45, 0
  br i1 %46, label %47, label %48

47:                                               ; preds = %42, %37
  store i32 0, ptr %5, align 4
  br label %72

48:                                               ; preds = %42
  %49 = load ptr, ptr %6, align 8, !tbaa !40
  %50 = getelementptr inbounds nuw %struct.Frame, ptr %49, i32 0, i32 2
  %51 = load i32, ptr %50, align 8, !tbaa !41
  %52 = load ptr, ptr %6, align 8, !tbaa !40
  %53 = getelementptr inbounds nuw %struct.Frame, ptr %52, i32 0, i32 0
  %54 = load i32, ptr %53, align 8, !tbaa !96
  %55 = add nsw i32 %51, %54
  %56 = load i32, ptr %8, align 4, !tbaa !8
  %57 = icmp sgt i32 %55, %56
  br i1 %57, label %58, label %59

58:                                               ; preds = %48
  store i32 0, ptr %5, align 4
  br label %72

59:                                               ; preds = %48
  %60 = load ptr, ptr %6, align 8, !tbaa !40
  %61 = getelementptr inbounds nuw %struct.Frame, ptr %60, i32 0, i32 3
  %62 = load i32, ptr %61, align 4, !tbaa !44
  %63 = load ptr, ptr %6, align 8, !tbaa !40
  %64 = getelementptr inbounds nuw %struct.Frame, ptr %63, i32 0, i32 1
  %65 = load i32, ptr %64, align 4, !tbaa !97
  %66 = add nsw i32 %62, %65
  %67 = load i32, ptr %9, align 4, !tbaa !8
  %68 = icmp sgt i32 %66, %67
  br i1 %68, label %69, label %70

69:                                               ; preds = %59
  store i32 0, ptr %5, align 4
  br label %72

70:                                               ; preds = %59
  br label %71

71:                                               ; preds = %70, %36
  store i32 1, ptr %5, align 4
  br label %72

72:                                               ; preds = %71, %69, %58, %47, %35, %22
  %73 = load i32, ptr %5, align 4
  ret i32 %73
}

; Function Attrs: nounwind uwtable
define internal i32 @IsValidExtendedFormat(ptr noundef %0) #0 {
  %2 = alloca i32, align 4
  %3 = alloca ptr, align 8
  %4 = alloca i32, align 4
  %5 = alloca ptr, align 8
  %6 = alloca i32, align 4
  %7 = alloca i32, align 4
  %8 = alloca ptr, align 8
  %9 = alloca ptr, align 8
  store ptr %0, ptr %3, align 8, !tbaa !16
  call void @llvm.lifetime.start.p0(i64 4, ptr %4) #7
  %10 = load ptr, ptr %3, align 8, !tbaa !16
  %11 = getelementptr inbounds nuw %struct.WebPDemuxer, ptr %10, i32 0, i32 3
  %12 = load i32, ptr %11, align 8, !tbaa !47
  %13 = and i32 %12, 2
  %14 = icmp ne i32 %13, 0
  %15 = xor i1 %14, true
  %16 = xor i1 %15, true
  %17 = zext i1 %16 to i32
  store i32 %17, ptr %4, align 4, !tbaa !8
  call void @llvm.lifetime.start.p0(i64 8, ptr %5) #7
  %18 = load ptr, ptr %3, align 8, !tbaa !16
  %19 = getelementptr inbounds nuw %struct.WebPDemuxer, ptr %18, i32 0, i32 9
  %20 = load ptr, ptr %19, align 8, !tbaa !55
  store ptr %20, ptr %5, align 8, !tbaa !40
  %21 = load ptr, ptr %3, align 8, !tbaa !16
  %22 = getelementptr inbounds nuw %struct.WebPDemuxer, ptr %21, i32 0, i32 1
  %23 = load i32, ptr %22, align 8, !tbaa !25
  %24 = icmp eq i32 %23, 0
  br i1 %24, label %25, label %26

25:                                               ; preds = %1
  store i32 1, ptr %2, align 4
  store i32 1, ptr %6, align 4
  br label %208

26:                                               ; preds = %1
  %27 = load ptr, ptr %3, align 8, !tbaa !16
  %28 = getelementptr inbounds nuw %struct.WebPDemuxer, ptr %27, i32 0, i32 4
  %29 = load i32, ptr %28, align 4, !tbaa !43
  %30 = icmp sle i32 %29, 0
  br i1 %30, label %36, label %31

31:                                               ; preds = %26
  %32 = load ptr, ptr %3, align 8, !tbaa !16
  %33 = getelementptr inbounds nuw %struct.WebPDemuxer, ptr %32, i32 0, i32 5
  %34 = load i32, ptr %33, align 8, !tbaa !45
  %35 = icmp sle i32 %34, 0
  br i1 %35, label %36, label %37

36:                                               ; preds = %31, %26
  store i32 0, ptr %2, align 4
  store i32 1, ptr %6, align 4
  br label %208

37:                                               ; preds = %31
  %38 = load ptr, ptr %3, align 8, !tbaa !16
  %39 = getelementptr inbounds nuw %struct.WebPDemuxer, ptr %38, i32 0, i32 6
  %40 = load i32, ptr %39, align 4, !tbaa !49
  %41 = icmp slt i32 %40, 0
  br i1 %41, label %42, label %43

42:                                               ; preds = %37
  store i32 0, ptr %2, align 4
  store i32 1, ptr %6, align 4
  br label %208

43:                                               ; preds = %37
  %44 = load ptr, ptr %3, align 8, !tbaa !16
  %45 = getelementptr inbounds nuw %struct.WebPDemuxer, ptr %44, i32 0, i32 1
  %46 = load i32, ptr %45, align 8, !tbaa !25
  %47 = icmp eq i32 %46, 2
  br i1 %47, label %48, label %54

48:                                               ; preds = %43
  %49 = load ptr, ptr %3, align 8, !tbaa !16
  %50 = getelementptr inbounds nuw %struct.WebPDemuxer, ptr %49, i32 0, i32 9
  %51 = load ptr, ptr %50, align 8, !tbaa !55
  %52 = icmp eq ptr %51, null
  br i1 %52, label %53, label %54

53:                                               ; preds = %48
  store i32 0, ptr %2, align 4
  store i32 1, ptr %6, align 4
  br label %208

54:                                               ; preds = %48, %43
  %55 = load ptr, ptr %3, align 8, !tbaa !16
  %56 = getelementptr inbounds nuw %struct.WebPDemuxer, ptr %55, i32 0, i32 3
  %57 = load i32, ptr %56, align 8, !tbaa !47
  %58 = and i32 %57, -63
  %59 = icmp ne i32 %58, 0
  br i1 %59, label %60, label %61

60:                                               ; preds = %54
  store i32 0, ptr %2, align 4
  store i32 1, ptr %6, align 4
  br label %208

61:                                               ; preds = %54
  br label %62

62:                                               ; preds = %206, %61
  %63 = load ptr, ptr %5, align 8, !tbaa !40
  %64 = icmp ne ptr %63, null
  br i1 %64, label %65, label %207

65:                                               ; preds = %62
  call void @llvm.lifetime.start.p0(i64 4, ptr %7) #7
  %66 = load ptr, ptr %5, align 8, !tbaa !40
  %67 = getelementptr inbounds nuw %struct.Frame, ptr %66, i32 0, i32 8
  %68 = load i32, ptr %67, align 8, !tbaa !89
  store i32 %68, ptr %7, align 4, !tbaa !8
  br label %69

69:                                               ; preds = %199, %65
  %70 = load ptr, ptr %5, align 8, !tbaa !40
  %71 = icmp ne ptr %70, null
  br i1 %71, label %72, label %78

72:                                               ; preds = %69
  %73 = load ptr, ptr %5, align 8, !tbaa !40
  %74 = getelementptr inbounds nuw %struct.Frame, ptr %73, i32 0, i32 8
  %75 = load i32, ptr %74, align 8, !tbaa !89
  %76 = load i32, ptr %7, align 4, !tbaa !8
  %77 = icmp eq i32 %75, %76
  br label %78

78:                                               ; preds = %72, %69
  %79 = phi i1 [ false, %69 ], [ %77, %72 ]
  br i1 %79, label %80, label %203

80:                                               ; preds = %78
  call void @llvm.lifetime.start.p0(i64 8, ptr %8) #7
  %81 = load ptr, ptr %5, align 8, !tbaa !40
  %82 = getelementptr inbounds nuw %struct.Frame, ptr %81, i32 0, i32 10
  %83 = getelementptr inbounds [2 x %struct.ChunkData], ptr %82, i64 0, i64 0
  store ptr %83, ptr %8, align 8, !tbaa !10
  call void @llvm.lifetime.start.p0(i64 8, ptr %9) #7
  %84 = load ptr, ptr %5, align 8, !tbaa !40
  %85 = getelementptr inbounds nuw %struct.Frame, ptr %84, i32 0, i32 10
  %86 = getelementptr inbounds [2 x %struct.ChunkData], ptr %85, i64 0, i64 0
  %87 = getelementptr inbounds %struct.ChunkData, ptr %86, i64 1
  store ptr %87, ptr %9, align 8, !tbaa !10
  %88 = load i32, ptr %4, align 4, !tbaa !8
  %89 = icmp ne i32 %88, 0
  br i1 %89, label %96, label %90

90:                                               ; preds = %80
  %91 = load ptr, ptr %5, align 8, !tbaa !40
  %92 = getelementptr inbounds nuw %struct.Frame, ptr %91, i32 0, i32 8
  %93 = load i32, ptr %92, align 8, !tbaa !89
  %94 = icmp sgt i32 %93, 1
  br i1 %94, label %95, label %96

95:                                               ; preds = %90
  store i32 0, ptr %2, align 4
  store i32 1, ptr %6, align 4
  br label %196

96:                                               ; preds = %90, %80
  %97 = load ptr, ptr %5, align 8, !tbaa !40
  %98 = getelementptr inbounds nuw %struct.Frame, ptr %97, i32 0, i32 9
  %99 = load i32, ptr %98, align 4, !tbaa !90
  %100 = icmp ne i32 %99, 0
  br i1 %100, label %101, label %138

101:                                              ; preds = %96
  %102 = load ptr, ptr %9, align 8, !tbaa !10
  %103 = getelementptr inbounds nuw %struct.ChunkData, ptr %102, i32 0, i32 1
  %104 = load i64, ptr %103, align 8, !tbaa !84
  %105 = icmp eq i64 %104, 0
  br i1 %105, label %106, label %112

106:                                              ; preds = %101
  %107 = load ptr, ptr %8, align 8, !tbaa !10
  %108 = getelementptr inbounds nuw %struct.ChunkData, ptr %107, i32 0, i32 1
  %109 = load i64, ptr %108, align 8, !tbaa !84
  %110 = icmp eq i64 %109, 0
  br i1 %110, label %111, label %112

111:                                              ; preds = %106
  store i32 0, ptr %2, align 4
  store i32 1, ptr %6, align 4
  br label %196

112:                                              ; preds = %106, %101
  %113 = load ptr, ptr %9, align 8, !tbaa !10
  %114 = getelementptr inbounds nuw %struct.ChunkData, ptr %113, i32 0, i32 1
  %115 = load i64, ptr %114, align 8, !tbaa !84
  %116 = icmp ugt i64 %115, 0
  br i1 %116, label %117, label %126

117:                                              ; preds = %112
  %118 = load ptr, ptr %9, align 8, !tbaa !10
  %119 = getelementptr inbounds nuw %struct.ChunkData, ptr %118, i32 0, i32 0
  %120 = load i64, ptr %119, align 8, !tbaa !83
  %121 = load ptr, ptr %8, align 8, !tbaa !10
  %122 = getelementptr inbounds nuw %struct.ChunkData, ptr %121, i32 0, i32 0
  %123 = load i64, ptr %122, align 8, !tbaa !83
  %124 = icmp ugt i64 %120, %123
  br i1 %124, label %125, label %126

125:                                              ; preds = %117
  store i32 0, ptr %2, align 4
  store i32 1, ptr %6, align 4
  br label %196

126:                                              ; preds = %117, %112
  %127 = load ptr, ptr %5, align 8, !tbaa !40
  %128 = getelementptr inbounds nuw %struct.Frame, ptr %127, i32 0, i32 2
  %129 = load i32, ptr %128, align 8, !tbaa !41
  %130 = icmp sle i32 %129, 0
  br i1 %130, label %136, label %131

131:                                              ; preds = %126
  %132 = load ptr, ptr %5, align 8, !tbaa !40
  %133 = getelementptr inbounds nuw %struct.Frame, ptr %132, i32 0, i32 3
  %134 = load i32, ptr %133, align 4, !tbaa !44
  %135 = icmp sle i32 %134, 0
  br i1 %135, label %136, label %137

136:                                              ; preds = %131, %126
  store i32 0, ptr %2, align 4
  store i32 1, ptr %6, align 4
  br label %196

137:                                              ; preds = %131
  br label %170

138:                                              ; preds = %96
  %139 = load ptr, ptr %3, align 8, !tbaa !16
  %140 = getelementptr inbounds nuw %struct.WebPDemuxer, ptr %139, i32 0, i32 1
  %141 = load i32, ptr %140, align 8, !tbaa !25
  %142 = icmp eq i32 %141, 2
  br i1 %142, label %143, label %144

143:                                              ; preds = %138
  store i32 0, ptr %2, align 4
  store i32 1, ptr %6, align 4
  br label %196

144:                                              ; preds = %138
  %145 = load ptr, ptr %9, align 8, !tbaa !10
  %146 = getelementptr inbounds nuw %struct.ChunkData, ptr %145, i32 0, i32 1
  %147 = load i64, ptr %146, align 8, !tbaa !84
  %148 = icmp ugt i64 %147, 0
  br i1 %148, label %149, label %163

149:                                              ; preds = %144
  %150 = load ptr, ptr %8, align 8, !tbaa !10
  %151 = getelementptr inbounds nuw %struct.ChunkData, ptr %150, i32 0, i32 1
  %152 = load i64, ptr %151, align 8, !tbaa !84
  %153 = icmp ugt i64 %152, 0
  br i1 %153, label %154, label %163

154:                                              ; preds = %149
  %155 = load ptr, ptr %9, align 8, !tbaa !10
  %156 = getelementptr inbounds nuw %struct.ChunkData, ptr %155, i32 0, i32 0
  %157 = load i64, ptr %156, align 8, !tbaa !83
  %158 = load ptr, ptr %8, align 8, !tbaa !10
  %159 = getelementptr inbounds nuw %struct.ChunkData, ptr %158, i32 0, i32 0
  %160 = load i64, ptr %159, align 8, !tbaa !83
  %161 = icmp ugt i64 %157, %160
  br i1 %161, label %162, label %163

162:                                              ; preds = %154
  store i32 0, ptr %2, align 4
  store i32 1, ptr %6, align 4
  br label %196

163:                                              ; preds = %154, %149, %144
  %164 = load ptr, ptr %5, align 8, !tbaa !40
  %165 = getelementptr inbounds nuw %struct.Frame, ptr %164, i32 0, i32 11
  %166 = load ptr, ptr %165, align 8, !tbaa !56
  %167 = icmp ne ptr %166, null
  br i1 %167, label %168, label %169

168:                                              ; preds = %163
  store i32 0, ptr %2, align 4
  store i32 1, ptr %6, align 4
  br label %196

169:                                              ; preds = %163
  br label %170

170:                                              ; preds = %169, %137
  %171 = load ptr, ptr %5, align 8, !tbaa !40
  %172 = getelementptr inbounds nuw %struct.Frame, ptr %171, i32 0, i32 2
  %173 = load i32, ptr %172, align 8, !tbaa !41
  %174 = icmp sgt i32 %173, 0
  br i1 %174, label %175, label %195

175:                                              ; preds = %170
  %176 = load ptr, ptr %5, align 8, !tbaa !40
  %177 = getelementptr inbounds nuw %struct.Frame, ptr %176, i32 0, i32 3
  %178 = load i32, ptr %177, align 4, !tbaa !44
  %179 = icmp sgt i32 %178, 0
  br i1 %179, label %180, label %195

180:                                              ; preds = %175
  %181 = load ptr, ptr %5, align 8, !tbaa !40
  %182 = load i32, ptr %4, align 4, !tbaa !8
  %183 = icmp ne i32 %182, 0
  %184 = xor i1 %183, true
  %185 = zext i1 %184 to i32
  %186 = load ptr, ptr %3, align 8, !tbaa !16
  %187 = getelementptr inbounds nuw %struct.WebPDemuxer, ptr %186, i32 0, i32 4
  %188 = load i32, ptr %187, align 4, !tbaa !43
  %189 = load ptr, ptr %3, align 8, !tbaa !16
  %190 = getelementptr inbounds nuw %struct.WebPDemuxer, ptr %189, i32 0, i32 5
  %191 = load i32, ptr %190, align 8, !tbaa !45
  %192 = call i32 @CheckFrameBounds(ptr noundef %181, i32 noundef %185, i32 noundef %188, i32 noundef %191)
  %193 = icmp ne i32 %192, 0
  br i1 %193, label %195, label %194

194:                                              ; preds = %180
  store i32 0, ptr %2, align 4
  store i32 1, ptr %6, align 4
  br label %196

195:                                              ; preds = %180, %175, %170
  store i32 0, ptr %6, align 4
  br label %196

196:                                              ; preds = %195, %194, %168, %162, %143, %136, %125, %111, %95
  call void @llvm.lifetime.end.p0(i64 8, ptr %9) #7
  call void @llvm.lifetime.end.p0(i64 8, ptr %8) #7
  %197 = load i32, ptr %6, align 4
  switch i32 %197, label %204 [
    i32 0, label %198
  ]

198:                                              ; preds = %196
  br label %199

199:                                              ; preds = %198
  %200 = load ptr, ptr %5, align 8, !tbaa !40
  %201 = getelementptr inbounds nuw %struct.Frame, ptr %200, i32 0, i32 11
  %202 = load ptr, ptr %201, align 8, !tbaa !56
  store ptr %202, ptr %5, align 8, !tbaa !40
  br label %69, !llvm.loop !92

203:                                              ; preds = %78
  store i32 0, ptr %6, align 4
  br label %204

204:                                              ; preds = %203, %196
  call void @llvm.lifetime.end.p0(i64 4, ptr %7) #7
  %205 = load i32, ptr %6, align 4
  switch i32 %205, label %208 [
    i32 0, label %206
  ]

206:                                              ; preds = %204
  br label %62, !llvm.loop !93

207:                                              ; preds = %62
  store i32 1, ptr %2, align 4
  store i32 1, ptr %6, align 4
  br label %208

208:                                              ; preds = %207, %204, %60, %53, %42, %36, %25
  call void @llvm.lifetime.end.p0(i64 8, ptr %5) #7
  call void @llvm.lifetime.end.p0(i64 4, ptr %4) #7
  %209 = load i32, ptr %2, align 4
  ret i32 %209
}