; Function Attrs: nofree norecurse nosync nounwind memory(read, inaccessiblemem: none) uwtable
define internal range(i32 0, 2) i32 @IsValidExtendedFormat(ptr noundef readonly captures(none) %0) #10 {
  %2 = getelementptr inbounds nuw i8, ptr %0, i64 48
  %3 = load i32, ptr %2, align 8, !tbaa !43
  %4 = and i32 %3, 2
  %.not = icmp eq i32 %4, 0
  %5 = getelementptr inbounds nuw i8, ptr %0, i64 72
  %6 = load ptr, ptr %5, align 8, !tbaa !50
  %7 = getelementptr inbounds nuw i8, ptr %0, i64 40
  %8 = load i32, ptr %7, align 8, !tbaa !13
  %9 = icmp eq i32 %8, 0
  br i1 %9, label %.critedge60, label %10

10:                                               ; preds = %1
  %11 = getelementptr inbounds nuw i8, ptr %0, i64 52
  %12 = load i32, ptr %11, align 4, !tbaa !22
  %13 = icmp slt i32 %12, 1
  br i1 %13, label %.critedge60, label %14

14:                                               ; preds = %10
  %15 = getelementptr inbounds nuw i8, ptr %0, i64 56
  %16 = load i32, ptr %15, align 8, !tbaa !23
  %17 = icmp slt i32 %16, 1
  br i1 %17, label %.critedge60, label %18

18:                                               ; preds = %14
  %19 = getelementptr inbounds nuw i8, ptr %0, i64 60
  %20 = load i32, ptr %19, align 4, !tbaa !20
  %21 = icmp slt i32 %20, 0
  br i1 %21, label %.critedge60, label %22

22:                                               ; preds = %18
  %23 = icmp ne i32 %8, 2
  %24 = icmp ne ptr %6, null
  %or.cond.not72 = select i1 %23, i1 true, i1 %24
  %25 = and i32 %3, -63
  %.not48 = icmp eq i32 %25, 0
  %or.cond63 = select i1 %or.cond.not72, i1 %.not48, i1 false
  br i1 %or.cond63, label %.preheader, label %.critedge60

.preheader:                                       ; preds = %22
  %.not4976 = icmp eq ptr %6, null
  br i1 %.not4976, label %.critedge60, label %.lr.ph

.lr.ph:                                           ; preds = %29, %.preheader
  %.04277 = phi ptr [ %6, %.preheader ], [ %.14375, %29 ]
  %26 = getelementptr inbounds nuw i8, ptr %.04277, i64 32
  %27 = load i32, ptr %26, align 8, !tbaa !39
  %28 = icmp sgt i32 %27, 1
  %or.cond57 = and i1 %.not, %28
  br label %29

29:                                               ; preds = %.lr.ph, %.critedge59
  %.14375 = phi ptr [ %.04277, %.lr.ph ], [ %95, %.critedge59 ]
  %30 = getelementptr inbounds nuw i8, ptr %.14375, i64 32
  %31 = load i32, ptr %30, align 8, !tbaa !39
  %32 = icmp eq i32 %31, %27
  br i1 %32, label %33, label %.lr.ph, !llvm.loop !95

33:                                               ; preds = %29
  %34 = getelementptr inbounds nuw i8, ptr %.14375, i64 40
  %35 = getelementptr inbounds nuw i8, ptr %.14375, i64 56
  br i1 %or.cond57, label %.critedge60, label %36

36:                                               ; preds = %33
  %37 = getelementptr inbounds nuw i8, ptr %.14375, i64 36
  %38 = load i32, ptr %37, align 4, !tbaa !40
  %.not51 = icmp eq i32 %38, 0
  br i1 %.not51, label %58, label %39

39:                                               ; preds = %36
  %40 = getelementptr inbounds nuw i8, ptr %.14375, i64 64
  %41 = load i64, ptr %40, align 8, !tbaa !30
  %42 = icmp eq i64 %41, 0
  br i1 %42, label %43, label %47

43:                                               ; preds = %39
  %44 = getelementptr inbounds nuw i8, ptr %.14375, i64 48
  %45 = load i64, ptr %44, align 8, !tbaa !30
  %46 = icmp eq i64 %45, 0
  br i1 %46, label %.critedge60, label %.thread

47:                                               ; preds = %39
  %48 = load i64, ptr %35, align 8, !tbaa !28
  %49 = load i64, ptr %34, align 8, !tbaa !28
  %50 = icmp ugt i64 %48, %49
  br i1 %50, label %.critedge60, label %.thread

.thread:                                          ; preds = %43, %47
  %51 = getelementptr inbounds nuw i8, ptr %.14375, i64 8
  %52 = load i32, ptr %51, align 8, !tbaa !33
  %53 = icmp slt i32 %52, 1
  br i1 %53, label %.critedge60, label %54

54:                                               ; preds = %.thread
  %55 = getelementptr inbounds nuw i8, ptr %.14375, i64 12
  %56 = load i32, ptr %55, align 4, !tbaa !36
  %57 = icmp slt i32 %56, 1
  br i1 %57, label %.critedge60, label %.thread79

58:                                               ; preds = %36
  br i1 %23, label %59, label %.critedge60

59:                                               ; preds = %58
  %60 = getelementptr inbounds nuw i8, ptr %.14375, i64 64
  %61 = load i64, ptr %60, align 8, !tbaa !30
  %.not52 = icmp eq i64 %61, 0
  br i1 %.not52, label %69, label %62

62:                                               ; preds = %59
  %63 = getelementptr inbounds nuw i8, ptr %.14375, i64 48
  %64 = load i64, ptr %63, align 8, !tbaa !30
  %.not53 = icmp eq i64 %64, 0
  br i1 %.not53, label %69, label %65

65:                                               ; preds = %62
  %66 = load i64, ptr %35, align 8, !tbaa !28
  %67 = load i64, ptr %34, align 8, !tbaa !28
  %68 = icmp ugt i64 %66, %67
  br i1 %68, label %.critedge60, label %69

69:                                               ; preds = %65, %62, %59
  %70 = getelementptr inbounds nuw i8, ptr %.14375, i64 72
  %71 = load ptr, ptr %70, align 8, !tbaa !42
  %.not54 = icmp eq ptr %71, null
  br i1 %.not54, label %72, label %.critedge60

72:                                               ; preds = %69
  %.phi.trans.insert = getelementptr inbounds nuw i8, ptr %.14375, i64 8
  %.pre = load i32, ptr %.phi.trans.insert, align 8, !tbaa !33
  %73 = icmp sgt i32 %.pre, 0
  br i1 %73, label %.thread79, label %.critedge59

.thread79:                                        ; preds = %54, %72
  %74 = phi i32 [ %.pre, %72 ], [ %52, %54 ]
  %75 = getelementptr inbounds nuw i8, ptr %.14375, i64 12
  %76 = load i32, ptr %75, align 4, !tbaa !36
  %77 = icmp sgt i32 %76, 0
  br i1 %77, label %78, label %.critedge59

78:                                               ; preds = %.thread79
  %79 = load i32, ptr %.14375, align 8, !tbaa !62
  br i1 %.not, label %80, label %84

80:                                               ; preds = %78
  %.not17.i = icmp eq i32 %79, 0
  br i1 %.not17.i, label %81, label %.critedge60

81:                                               ; preds = %80
  %82 = getelementptr inbounds nuw i8, ptr %.14375, i64 4
  %83 = load i32, ptr %82, align 4, !tbaa !64
  %.not18.i = icmp eq i32 %83, 0
  %.not19.i = icmp eq i32 %74, %12
  %or.cond64 = and i1 %.not19.i, %.not18.i
  %.not20.i = icmp eq i32 %76, %16
  %or.cond65 = and i1 %.not20.i, %or.cond64
  br i1 %or.cond65, label %.critedge59, label %.critedge60

84:                                               ; preds = %78
  %85 = icmp slt i32 %79, 0
  br i1 %85, label %.critedge60, label %86

86:                                               ; preds = %84
  %87 = getelementptr inbounds nuw i8, ptr %.14375, i64 4
  %88 = load i32, ptr %87, align 4, !tbaa !64
  %89 = icmp slt i32 %88, 0
  %90 = add nuw nsw i32 %79, %74
  %91 = icmp sgt i32 %90, %12
  %or.cond67 = select i1 %89, i1 true, i1 %91
  %92 = add nuw nsw i32 %88, %76
  %93 = icmp sgt i32 %92, %16
  %or.cond69 = select i1 %or.cond67, i1 true, i1 %93
  br i1 %or.cond69, label %.critedge60, label %.critedge59

.critedge59:                                      ; preds = %86, %81, %.thread79, %72
  %94 = getelementptr inbounds nuw i8, ptr %.14375, i64 72
  %95 = load ptr, ptr %94, align 8, !tbaa !42
  %.not50 = icmp eq ptr %95, null
  br i1 %.not50, label %.critedge60, label %29, !llvm.loop !96

.critedge60:                                      ; preds = %.critedge59, %84, %86, %80, %81, %69, %65, %58, %.thread, %54, %47, %43, %33, %.preheader, %22, %18, %10, %14, %1
  %.0 = phi i32 [ 1, %1 ], [ 0, %14 ], [ 0, %10 ], [ 0, %18 ], [ 0, %22 ], [ 1, %.preheader ], [ 1, %.critedge59 ], [ 0, %84 ], [ 0, %86 ], [ 0, %80 ], [ 0, %81 ], [ 0, %69 ], [ 0, %65 ], [ 0, %58 ], [ 0, %.thread ], [ 0, %54 ], [ 0, %47 ], [ 0, %43 ], [ 0, %33 ]
  ret i32 %.0
}